target datalayout = "e-m:e-p270:32:32-p271:32:32-p272:64:64-i64:64-i128:128-f80:128-n8:16:32:64-S128"
target triple = "x86_64-pc-linux-gnu"

%struct.EC_PKEY_CTX = type { ptr, ptr, ptr, i8, i8, ptr, ptr, i64, i64 }
%struct.evp_pkey_ctx_st = type { i32, ptr, ptr, ptr, ptr, %union.anon, %struct.anon.4, ptr, ptr, ptr, i32, i32, ptr, ptr, ptr, ptr, ptr, i8, ptr }
%union.anon = type { %struct.anon.0 }
%struct.anon.0 = type { ptr, ptr }
%struct.anon.4 = type { ptr, ptr, i64, i8 }

@.str = private unnamed_addr constant [32 x i8] c"../openssl/crypto/ec/ec_pmeth.c\00", align 1
@__func__.pkey_ec_keygen = private unnamed_addr constant [15 x i8] c"pkey_ec_keygen\00", align 1

; Function Attrs: nounwind uwtable
define internal i32 @pkey_ec_keygen(ptr noundef %0, ptr noundef %1) #0 {
  %3 = alloca i32, align 4
  %4 = alloca ptr, align 8
  %5 = alloca ptr, align 8
  %6 = alloca ptr, align 8
  %7 = alloca ptr, align 8
  %8 = alloca i32, align 4
  %9 = alloca i32, align 4
  store ptr %0, ptr %4, align 8, !tbaa !3
  store ptr %1, ptr %5, align 8, !tbaa !35
  call void @llvm.lifetime.start.p0(i64 8, ptr %6) #7
  store ptr null, ptr %6, align 8, !tbaa !36
  call void @llvm.lifetime.start.p0(i64 8, ptr %7) #7
  %10 = load ptr, ptr %4, align 8, !tbaa !3
  %11 = getelementptr inbounds nuw %struct.evp_pkey_ctx_st, ptr %10, i32 0, i32 16
  %12 = load ptr, ptr %11, align 8, !tbaa !17
  store ptr %12, ptr %7, align 8, !tbaa !8
  call void @llvm.lifetime.start.p0(i64 4, ptr %8) #7
  %13 = load ptr, ptr %4, align 8, !tbaa !3
  %14 = getelementptr inbounds nuw %struct.evp_pkey_ctx_st, ptr %13, i32 0, i32 14
  %15 = load ptr, ptr %14, align 8, !tbaa !38
  %16 = icmp eq ptr %15, null
  br i1 %16, label %17, label %23

17:                                               ; preds = %2
  %18 = load ptr, ptr %7, align 8, !tbaa !8
  %19 = getelementptr inbounds nuw %struct.EC_PKEY_CTX, ptr %18, i32 0, i32 0
  %20 = load ptr, ptr %19, align 8, !tbaa !28
  %21 = icmp eq ptr %20, null
  br i1 %21, label %22, label %23

22:                                               ; preds = %17
  call void @ERR_new()
  call void @ERR_set_debug(ptr noundef @.str, i32 noundef 454, ptr noundef @__func__.pkey_ec_keygen)
  call void (i32, i32, ptr, ...) @ERR_set_error(i32 noundef 16, i32 noundef 139, ptr noundef null)
  store i32 0, ptr %3, align 4
  store i32 1, ptr %9, align 4
  br label %67

23:                                               ; preds = %17, %2
  %24 = call ptr @EC_KEY_new()
  store ptr %24, ptr %6, align 8, !tbaa !36
  %25 = load ptr, ptr %6, align 8, !tbaa !36
  %26 = icmp eq ptr %25, null
  br i1 %26, label %27, label %28

27:                                               ; preds = %23
  store i32 0, ptr %3, align 4
  store i32 1, ptr %9, align 4
  br label %67

28:                                               ; preds = %23
  %29 = load ptr, ptr %5, align 8, !tbaa !35
  %30 = load ptr, ptr %6, align 8, !tbaa !36
  %31 = call i32 @EVP_PKEY_assign(ptr noundef %29, i32 noundef 408, ptr noundef %30)
  %32 = icmp ne i32 %31, 0
  %33 = xor i1 %32, true
  %34 = xor i1 %33, true
  %35 = zext i1 %34 to i32
  %36 = sext i32 %35 to i64
  %37 = call i64 @llvm.expect.i64(i64 %36, i64 1)
  %38 = icmp ne i64 %37, 0
  br i1 %38, label %41, label %39

39:                                               ; preds = %28
  %40 = load ptr, ptr %6, align 8, !tbaa !36
  call void @EC_KEY_free(ptr noundef %40)
  store i32 0, ptr %3, align 4
  store i32 1, ptr %9, align 4
  br label %67

41:                                               ; preds = %28
  %42 = load ptr, ptr %4, align 8, !tbaa !3
  %43 = getelementptr inbounds nuw %struct.evp_pkey_ctx_st, ptr %42, i32 0, i32 14
  %44 = load ptr, ptr %43, align 8, !tbaa !38
  %45 = icmp ne ptr %44, null
  br i1 %45, label %46, label %52

46:                                               ; preds = %41
  %47 = load ptr, ptr %5, align 8, !tbaa !35
  %48 = load ptr, ptr %4, align 8, !tbaa !3
  %49 = getelementptr inbounds nuw %struct.evp_pkey_ctx_st, ptr %48, i32 0, i32 14
  %50 = load ptr, ptr %49, align 8, !tbaa !38
  %51 = call i32 @EVP_PKEY_copy_parameters(ptr noundef %47, ptr noundef %50)
  store i32 %51, ptr %8, align 4, !tbaa !37
  br label %58

52:                                               ; preds = %41
  %53 = load ptr, ptr %6, align 8, !tbaa !36
  %54 = load ptr, ptr %7, align 8, !tbaa !8
  %55 = getelementptr inbounds nuw %struct.EC_PKEY_CTX, ptr %54, i32 0, i32 0
  %56 = load ptr, ptr %55, align 8, !tbaa !28
  %57 = call i32 @EC_KEY_set_group(ptr noundef %53, ptr noundef %56)
  store i32 %57, ptr %8, align 4, !tbaa !37
  br label %58

58:                                               ; preds = %52, %46
  %59 = load i32, ptr %8, align 4, !tbaa !37
  %60 = icmp ne i32 %59, 0
  br i1 %60, label %61, label %64

61:                                               ; preds = %58
  %62 = load ptr, ptr %6, align 8, !tbaa !36
  %63 = call i32 @EC_KEY_generate_key(ptr noundef %62)
  br label %65

64:                                               ; preds = %58
  br label %65

65:                                               ; preds = %64, %61
  %66 = phi i32 [ %63, %61 ], [ 0, %64 ]
  store i32 %66, ptr %3, align 4
  store i32 1, ptr %9, align 4
  br label %67

67:                                               ; preds = %65, %39, %27, %22
  call void @llvm.lifetime.end.p0(i64 4, ptr %8) #7
  call void @llvm.lifetime.end.p0(i64 8, ptr %7) #7
  call void @llvm.lifetime.end.p0(i64 8, ptr %6) #7
  %68 = load i32, ptr %3, align 4
  ret i32 %68
}