; Function Attrs: nounwind uwtable
define internal i32 @pkey_ec_keygen(ptr noundef readonly captures(none) %0, ptr noundef %1) #1 {
  %3 = getelementptr inbounds nuw i8, ptr %0, i64 152
  %4 = load ptr, ptr %3, align 8, !tbaa !14
  %5 = getelementptr inbounds nuw i8, ptr %0, i64 136
  %6 = load ptr, ptr %5, align 8, !tbaa !33
  %7 = icmp eq ptr %6, null
  br i1 %7, label %8, label %12

8:                                                ; preds = %2
  %9 = load ptr, ptr %4, align 8, !tbaa !25
  %10 = icmp eq ptr %9, null
  br i1 %10, label %11, label %12

11:                                               ; preds = %8
  tail call void @ERR_new() #6
  tail call void @ERR_set_debug(ptr noundef nonnull @.str, i32 noundef 454, ptr noundef nonnull @__func__.pkey_ec_keygen) #6
  tail call void (i32, i32, ptr, ...) @ERR_set_error(i32 noundef 16, i32 noundef 139, ptr noundef null) #6
  br label %28

12:                                               ; preds = %8, %2
  %13 = tail call ptr @EC_KEY_new() #6
  %14 = icmp eq ptr %13, null
  br i1 %14, label %28, label %15

15:                                               ; preds = %12
  %16 = tail call i32 @EVP_PKEY_assign(ptr noundef %1, i32 noundef 408, ptr noundef nonnull %13) #6
  %.not = icmp eq i32 %16, 0
  br i1 %.not, label %17, label %18, !prof !32

17:                                               ; preds = %15
  tail call void @EC_KEY_free(ptr noundef nonnull %13) #6
  br label %28

18:                                               ; preds = %15
  %19 = load ptr, ptr %5, align 8, !tbaa !33
  %.not17 = icmp eq ptr %19, null
  br i1 %.not17, label %22, label %20

20:                                               ; preds = %18
  %21 = tail call i32 @EVP_PKEY_copy_parameters(ptr noundef %1, ptr noundef nonnull %19) #6
  br label %25

22:                                               ; preds = %18
  %23 = load ptr, ptr %4, align 8, !tbaa !25
  %24 = tail call i32 @EC_KEY_set_group(ptr noundef nonnull %13, ptr noundef %23) #6
  br label %25

25:                                               ; preds = %22, %20
  %.0 = phi i32 [ %21, %20 ], [ %24, %22 ]
  %.not18 = icmp eq i32 %.0, 0
  br i1 %.not18, label %28, label %26

26:                                               ; preds = %25
  %27 = tail call i32 @EC_KEY_generate_key(ptr noundef nonnull %13) #6
  br label %28

28:                                               ; preds = %26, %25, %12, %17, %11
  %.014 = phi i32 [ 0, %11 ], [ 0, %17 ], [ 0, %12 ], [ %27, %26 ], [ 0, %25 ]
  ret i32 %.014
}